target datalayout = "e-m:e-p270:32:32-p271:32:32-p272:64:64-i64:64-i128:128-f80:128-n8:16:32:64-S128"
target triple = "x86_64-pc-linux-gnu"

%struct.MpegvideoEncDSPContext = type { ptr, ptr, ptr, ptr, [4 x ptr], ptr }

; Function Attrs: cold nounwind optsize uwtable
define void @ff_mpegvideoencdsp_init(ptr noundef %0, ptr noundef %1) #0 {
  %3 = alloca ptr, align 8
  %4 = alloca ptr, align 8
  store ptr %0, ptr %3, align 8, !tbaa !4
  store ptr %1, ptr %4, align 8, !tbaa !9
  %5 = load ptr, ptr %3, align 8, !tbaa !4
  %6 = getelementptr inbounds nuw %struct.MpegvideoEncDSPContext, ptr %5, i32 0, i32 0
  store ptr @try_8x8basis_c, ptr %6, align 8, !tbaa !11
  %7 = load ptr, ptr %3, align 8, !tbaa !4
  %8 = getelementptr inbounds nuw %struct.MpegvideoEncDSPContext, ptr %7, i32 0, i32 1
  store ptr @add_8x8basis_c, ptr %8, align 8, !tbaa !13
  %9 = load ptr, ptr %3, align 8, !tbaa !4
  %10 = getelementptr inbounds nuw %struct.MpegvideoEncDSPContext, ptr %9, i32 0, i32 4
  %11 = getelementptr inbounds [4 x ptr], ptr %10, i64 0, i64 0
  store ptr @copy_plane_wrapper, ptr %11, align 8, !tbaa !14
  %12 = load ptr, ptr %3, align 8, !tbaa !4
  %13 = getelementptr inbounds nuw %struct.MpegvideoEncDSPContext, ptr %12, i32 0, i32 4
  %14 = getelementptr inbounds [4 x ptr], ptr %13, i64 0, i64 1
  store ptr @shrink22, ptr %14, align 8, !tbaa !14
  %15 = load ptr, ptr %3, align 8, !tbaa !4
  %16 = getelementptr inbounds nuw %struct.MpegvideoEncDSPContext, ptr %15, i32 0, i32 4
  %17 = getelementptr inbounds [4 x ptr], ptr %16, i64 0, i64 2
  store ptr @shrink44, ptr %17, align 8, !tbaa !14
  %18 = load ptr, ptr %3, align 8, !tbaa !4
  %19 = getelementptr inbounds nuw %struct.MpegvideoEncDSPContext, ptr %18, i32 0, i32 4
  %20 = getelementptr inbounds [4 x ptr], ptr %19, i64 0, i64 3
  store ptr @shrink88, ptr %20, align 8, !tbaa !14
  %21 = load ptr, ptr %3, align 8, !tbaa !4
  %22 = getelementptr inbounds nuw %struct.MpegvideoEncDSPContext, ptr %21, i32 0, i32 2
  store ptr @pix_sum_c, ptr %22, align 8, !tbaa !15
  %23 = load ptr, ptr %3, align 8, !tbaa !4
  %24 = getelementptr inbounds nuw %struct.MpegvideoEncDSPContext, ptr %23, i32 0, i32 3
  store ptr @pix_norm1_c, ptr %24, align 8, !tbaa !16
  %25 = load ptr, ptr %3, align 8, !tbaa !4
  %26 = getelementptr inbounds nuw %struct.MpegvideoEncDSPContext, ptr %25, i32 0, i32 5
  store ptr @draw_edges_8_c, ptr %26, align 8, !tbaa !17
  ret void
}