; Function Attrs: cold mustprogress nofree norecurse nosync nounwind optsize willreturn memory(argmem: write) uwtable
define void @ff_mpegvideoencdsp_init(ptr noundef writeonly captures(none) initializes((0, 72)) %0, ptr noundef readnone captures(none) %1) local_unnamed_addr #0 {
  store ptr @try_8x8basis_c, ptr %0, align 8, !tbaa !4
  %3 = getelementptr inbounds nuw i8, ptr %0, i64 8
  store ptr @add_8x8basis_c, ptr %3, align 8, !tbaa !9
  %4 = getelementptr inbounds nuw i8, ptr %0, i64 32
  store ptr @copy_plane_wrapper, ptr %4, align 8, !tbaa !10
  %5 = getelementptr inbounds nuw i8, ptr %0, i64 40
  store ptr @shrink22, ptr %5, align 8, !tbaa !10
  %6 = getelementptr inbounds nuw i8, ptr %0, i64 48
  store ptr @shrink44, ptr %6, align 8, !tbaa !10
  %7 = getelementptr inbounds nuw i8, ptr %0, i64 56
  store ptr @shrink88, ptr %7, align 8, !tbaa !10
  %8 = getelementptr inbounds nuw i8, ptr %0, i64 16
  store ptr @pix_sum_c, ptr %8, align 8, !tbaa !11
  %9 = getelementptr inbounds nuw i8, ptr %0, i64 24
  store ptr @pix_norm1_c, ptr %9, align 8, !tbaa !12
  %10 = getelementptr inbounds nuw i8, ptr %0, i64 64
  store ptr @draw_edges_8_c, ptr %10, align 8, !tbaa !13
  ret void
}